target datalayout = "e-m:e-p270:32:32-p271:32:32-p272:64:64-i64:64-i128:128-f80:128-n8:16:32:64-S128"
target triple = "x86_64-pc-linux-gnu"

%"class.zmq::socks_greeting_encoder_t" = type <{ i64, i64, [257 x i8], [7 x i8] }>

; Function Attrs: mustprogress uwtable
define noundef i32 @_ZN3zmq24socks_greeting_encoder_t6outputEi(ptr noundef nonnull align 8 dereferenceable(273) %0, i32 noundef %1) #2 align 2 {
  %3 = alloca ptr, align 8
  %4 = alloca i32, align 4
  %5 = alloca i32, align 4
  store ptr %0, ptr %3, align 8, !tbaa !16
  store i32 %1, ptr %4, align 4, !tbaa !22
  %6 = load ptr, ptr %3, align 8
  call void @llvm.lifetime.start.p0(i64 4, ptr %5) #14
  %7 = load i32, ptr %4, align 4, !tbaa !22
  %8 = getelementptr inbounds nuw %"class.zmq::socks_greeting_encoder_t", ptr %6, i32 0, i32 2
  %9 = getelementptr inbounds [257 x i8], ptr %8, i64 0, i64 0
  %10 = getelementptr inbounds nuw %"class.zmq::socks_greeting_encoder_t", ptr %6, i32 0, i32 1
  %11 = load i64, ptr %10, align 8, !tbaa !20
  %12 = getelementptr inbounds nuw i8, ptr %9, i64 %11
  %13 = getelementptr inbounds nuw %"class.zmq::socks_greeting_encoder_t", ptr %6, i32 0, i32 0
  %14 = load i64, ptr %13, align 8, !tbaa !18
  %15 = getelementptr inbounds nuw %"class.zmq::socks_greeting_encoder_t", ptr %6, i32 0, i32 1
  %16 = load i64, ptr %15, align 8, !tbaa !20
  %17 = sub i64 %14, %16
  %18 = call noundef i32 @_ZN3zmq9tcp_writeEiPKvm(i32 noundef %7, ptr noundef %12, i64 noundef %17)
  store i32 %18, ptr %5, align 4, !tbaa !22
  %19 = load i32, ptr %5, align 4, !tbaa !22
  %20 = icmp sgt i32 %19, 0
  br i1 %20, label %21, label %27

21:                                               ; preds = %2
  %22 = load i32, ptr %5, align 4, !tbaa !22
  %23 = sext i32 %22 to i64
  %24 = getelementptr inbounds nuw %"class.zmq::socks_greeting_encoder_t", ptr %6, i32 0, i32 1
  %25 = load i64, ptr %24, align 8, !tbaa !20
  %26 = add i64 %25, %23
  store i64 %26, ptr %24, align 8, !tbaa !20
  br label %27

27:                                               ; preds = %21, %2
  %28 = load i32, ptr %5, align 4, !tbaa !22
  call void @llvm.lifetime.end.p0(i64 4, ptr %5) #14
  ret i32 %28
}