; Function Attrs: mustprogress uwtable
define noundef i32 @_ZN3zmq24socks_greeting_encoder_t6outputEi(ptr noundef nonnull align 8 dereferenceable(273) %0, i32 noundef %1) local_unnamed_addr #3 align 2 {
  %3 = getelementptr inbounds nuw i8, ptr %0, i64 16
  %4 = getelementptr inbounds nuw i8, ptr %0, i64 8
  %5 = load i64, ptr %4, align 8, !tbaa !13
  %6 = getelementptr inbounds nuw i8, ptr %3, i64 %5
  %7 = load i64, ptr %0, align 8, !tbaa !11
  %8 = sub i64 %7, %5
  %9 = tail call noundef i32 @_ZN3zmq9tcp_writeEiPKvm(i32 noundef %1, ptr noundef nonnull %6, i64 noundef %8)
  %10 = icmp sgt i32 %9, 0
  br i1 %10, label %11, label %15

11:                                               ; preds = %2
  %12 = zext nneg i32 %9 to i64
  %13 = load i64, ptr %4, align 8, !tbaa !13
  %14 = add i64 %13, %12
  store i64 %14, ptr %4, align 8, !tbaa !13
  br label %15

15:                                               ; preds = %11, %2
  ret i32 %9
}